target datalayout = "e-m:e-p270:32:32-p271:32:32-p272:64:64-i64:64-i128:128-f80:128-n8:16:32:64-S128"
target triple = "x86_64-pc-linux-gnu"

@hf_afp_session_token_len = internal global i32 0, align 4
@hf_afp_session_token = internal global i32 0, align 4

; Function Attrs: null_pointer_is_valid sspstrong uwtable
define internal i32 @dissect_reply_afp_get_session_token(ptr noundef %0, ptr noundef %1, ptr noundef %2, i32 noundef %3) #1 {
  %5 = alloca i32, align 4
  %6 = alloca ptr, align 8
  %7 = alloca ptr, align 8
  %8 = alloca ptr, align 8
  %9 = alloca i32, align 4
  %10 = alloca i32, align 4
  %11 = alloca i32, align 4
  %12 = alloca i32, align 4
  store ptr %0, ptr %6, align 8
  store ptr %1, ptr %7, align 8
  store ptr %2, ptr %8, align 8
  store i32 %3, ptr %9, align 4
  call void @llvm.lifetime.start.p0(i64 4, ptr %10) #8
  call void @llvm.lifetime.start.p0(i64 4, ptr %11) #8
  store i32 4, ptr %10, align 4
  %13 = load ptr, ptr %8, align 8
  %14 = load i32, ptr @hf_afp_session_token_len, align 4
  %15 = load ptr, ptr %6, align 8
  %16 = load i32, ptr %9, align 4
  %17 = load i32, ptr %10, align 4
  %18 = call ptr @proto_tree_add_item_ret_uint(ptr noundef %13, i32 noundef %14, ptr noundef %15, i32 noundef %16, i32 noundef %17, i32 noundef 0, ptr noundef %11)
  %19 = load i32, ptr %10, align 4
  %20 = load i32, ptr %9, align 4
  %21 = add i32 %20, %19
  store i32 %21, ptr %9, align 4
  %22 = load i32, ptr %9, align 4
  %23 = load i32, ptr %11, align 4
  %24 = add i32 %22, %23
  %25 = icmp ugt i32 %24, 2147483647
  br i1 %25, label %26, label %28

26:                                               ; preds = %4
  %27 = load i32, ptr %9, align 4
  store i32 %27, ptr %5, align 4
  store i32 1, ptr %12, align 4
  br label %39

28:                                               ; preds = %4
  %29 = load ptr, ptr %8, align 8
  %30 = load i32, ptr @hf_afp_session_token, align 4
  %31 = load ptr, ptr %6, align 8
  %32 = load i32, ptr %9, align 4
  %33 = load i32, ptr %11, align 4
  %34 = call ptr @proto_tree_add_item(ptr noundef %29, i32 noundef %30, ptr noundef %31, i32 noundef %32, i32 noundef %33, i32 noundef 0)
  %35 = load i32, ptr %11, align 4
  %36 = load i32, ptr %9, align 4
  %37 = add i32 %36, %35
  store i32 %37, ptr %9, align 4
  %38 = load i32, ptr %9, align 4
  store i32 %38, ptr %5, align 4
  store i32 1, ptr %12, align 4
  br label %39

39:                                               ; preds = %28, %26
  call void @llvm.lifetime.end.p0(i64 4, ptr %11) #8
  call void @llvm.lifetime.end.p0(i64 4, ptr %10) #8
  %40 = load i32, ptr %5, align 4
  ret i32 %40
}