; Function Attrs: null_pointer_is_valid sspstrong uwtable
define internal fastcc i32 @dissect_reply_afp_get_session_token(ptr noundef %0, ptr noundef %1) unnamed_addr #1 {
  %3 = alloca i32, align 4
  call void @llvm.lifetime.start.p0(i64 4, ptr nonnull %3) #8
  %4 = load i32, ptr @hf_afp_session_token_len, align 4
  %5 = call ptr @proto_tree_add_item_ret_uint(ptr noundef %1, i32 noundef %4, ptr noundef %0, i32 noundef 0, i32 noundef 4, i32 noundef 0, ptr noundef nonnull %3)
  %6 = load i32, ptr %3, align 4
  %7 = add i32 %6, 4
  %8 = icmp slt i32 %7, 0
  br i1 %8, label %14, label %9

9:                                                ; preds = %2
  %10 = load i32, ptr @hf_afp_session_token, align 4
  %11 = call ptr @proto_tree_add_item(ptr noundef %1, i32 noundef %10, ptr noundef %0, i32 noundef 4, i32 noundef %6, i32 noundef 0)
  %12 = load i32, ptr %3, align 4
  %13 = add i32 %12, 4
  br label %14

14:                                               ; preds = %2, %9
  %.0 = phi i32 [ %13, %9 ], [ 4, %2 ]
  call void @llvm.lifetime.end.p0(i64 4, ptr nonnull %3) #8
  ret i32 %.0
}